; Function Attrs: mustprogress uwtable
define dso_local void @_ZN4Luau7CodeGen3A6418AssemblyBuilderA641bERNS0_5LabelE(ptr noundef nonnull align 8 dereferenceable(176) %0, ptr noundef nonnull align 4 captures(none) dereferenceable(8) %1) local_unnamed_addr #0 align 2 {
  %3 = getelementptr inbounds nuw i8, ptr %0, i64 160
  %4 = load ptr, ptr %3, align 8, !tbaa !39
  %5 = getelementptr inbounds nuw i8, ptr %4, i64 4
  store ptr %5, ptr %3, align 8, !tbaa !39
  store i32 335544320, ptr %4, align 4, !tbaa !48
  %6 = getelementptr inbounds nuw i8, ptr %0, i64 168
  %7 = load ptr, ptr %6, align 8, !tbaa !40
  %8 = icmp eq ptr %7, %5
  br i1 %8, label %9, label %_ZN4Luau7CodeGen3A6418AssemblyBuilderA646commitEv.exit.i

9:                                                ; preds = %2
  tail call void @_ZN4Luau7CodeGen3A6418AssemblyBuilderA646extendEv(ptr noundef nonnull align 8 dereferenceable(176) %0)
  br label %_ZN4Luau7CodeGen3A6418AssemblyBuilderA646commitEv.exit.i

_ZN4Luau7CodeGen3A6418AssemblyBuilderA646commitEv.exit.i: ; preds = %9, %2
  tail call void @_ZN4Luau7CodeGen3A6418AssemblyBuilderA6410patchLabelERNS0_5LabelENS2_5Patch4KindE(ptr noundef nonnull align 8 dereferenceable(176) %0, ptr noundef nonnull align 4 dereferenceable(8) %1, i32 noundef 0)
  %10 = getelementptr inbounds nuw i8, ptr %0, i64 80
  %11 = load i8, ptr %10, align 8, !tbaa !14, !range !46, !noundef !47
  %12 = trunc nuw i8 %11 to i1
  br i1 %12, label %13, label %_ZN4Luau7CodeGen3A6418AssemblyBuilderA646placeBEPKcRNS0_5LabelEh.exit

13:                                               ; preds = %_ZN4Luau7CodeGen3A6418AssemblyBuilderA646commitEv.exit.i
  %.sroa.0.0.copyload.i = load i64, ptr %1, align 4
  tail call void @_ZN4Luau7CodeGen3A6418AssemblyBuilderA643logEPKcNS0_5LabelE(ptr noundef nonnull align 8 dereferenceable(176) %0, ptr noundef nonnull @.str.38, i64 %.sroa.0.0.copyload.i)
  br label %_ZN4Luau7CodeGen3A6418AssemblyBuilderA646placeBEPKcRNS0_5LabelEh.exit

_ZN4Luau7CodeGen3A6418AssemblyBuilderA646placeBEPKcRNS0_5LabelEh.exit: ; preds = %_ZN4Luau7CodeGen3A6418AssemblyBuilderA646commitEv.exit.i, %13
  ret void
}